; Function Attrs: nounwind uwtable
define hidden void @_glfwSetWindowSizeWayland(ptr noundef %0, i32 noundef %1, i32 noundef %2) local_unnamed_addr #0 {
  %4 = getelementptr inbounds nuw i8, ptr %0, i64 80
  %5 = load ptr, ptr %4, align 8, !tbaa !157
  %.not = icmp eq ptr %5, null
  br i1 %.not, label %6, label %25

6:                                                ; preds = %3
  %7 = tail call fastcc i32 @resizeWindow(ptr noundef nonnull %0, i32 noundef %1, i32 noundef %2)
  %.not11 = icmp eq i32 %7, 0
  br i1 %.not11, label %25, label %8

8:                                                ; preds = %6
  %9 = getelementptr inbounds nuw i8, ptr %0, i64 984
  %10 = load ptr, ptr %9, align 8, !tbaa !160
  %.not12 = icmp eq ptr %10, null
  br i1 %.not12, label %21, label %11

11:                                               ; preds = %8
  %12 = getelementptr inbounds nuw i8, ptr %0, i64 856
  %13 = load ptr, ptr getelementptr inbounds nuw (i8, ptr @_glfw, i64 137824), align 8, !tbaa !154
  %14 = load i32, ptr %12, align 8, !tbaa !138
  %15 = getelementptr inbounds nuw i8, ptr %0, i64 860
  %16 = load i32, ptr %15, align 4, !tbaa !140
  %17 = tail call ptr %13(i32 noundef %14, i32 noundef %16) #20
  %18 = load ptr, ptr getelementptr inbounds nuw (i8, ptr @_glfw, i64 137736), align 8, !tbaa !155
  %19 = load ptr, ptr %9, align 8, !tbaa !160
  tail call void %18(ptr noundef %19, ptr noundef %17, ptr noundef null) #20
  %20 = load ptr, ptr getelementptr inbounds nuw (i8, ptr @_glfw, i64 137832), align 8, !tbaa !156
  tail call void %20(ptr noundef %17) #20
  br label %21

21:                                               ; preds = %11, %8
  %22 = getelementptr inbounds nuw i8, ptr %0, i64 872
  %23 = load i32, ptr %22, align 8, !tbaa !137
  %.not13 = icmp eq i32 %23, 0
  br i1 %.not13, label %25, label %24

24:                                               ; preds = %21
  tail call void @_glfwInputWindowDamage(ptr noundef nonnull %0) #20
  br label %25

25:                                               ; preds = %21, %24, %6, %3
  ret void
}